target datalayout = "e-m:e-p270:32:32-p271:32:32-p272:64:64-i64:64-i128:128-f80:128-n8:16:32:64-S128"
target triple = "x86_64-unknown-linux-gnu"

%"class.proxygen::HTTPSessionActivityTracker" = type { ptr, ptr, i64, i64, i64, i64 }

; Function Attrs: mustprogress uwtable
define noundef zeroext i1 @_ZN8proxygen26HTTPSessionActivityTracker13onIngressBodyEm(ptr noundef nonnull align 8 dereferenceable(48) %this, i64 noundef %bytes) #5 align 2 {
entry:
  %retval = alloca i1, align 1
  %this.addr = alloca ptr, align 8
  %bytes.addr = alloca i64, align 8
  store ptr %this, ptr %this.addr, align 8
  store i64 %bytes, ptr %bytes.addr, align 8
  %this1 = load ptr, ptr %this.addr, align 8
  %0 = load i64, ptr %bytes.addr, align 8
  %ingressSize_ = getelementptr inbounds %"class.proxygen::HTTPSessionActivityTracker", ptr %this1, i32 0, i32 2
  %1 = load i64, ptr %ingressSize_, align 8
  %add = add i64 %1, %0
  store i64 %add, ptr %ingressSize_, align 8
  %ingressSize_2 = getelementptr inbounds %"class.proxygen::HTTPSessionActivityTracker", ptr %this1, i32 0, i32 2
  %2 = load i64, ptr %ingressSize_2, align 8
  %ingressThreshold_ = getelementptr inbounds %"class.proxygen::HTTPSessionActivityTracker", ptr %this1, i32 0, i32 4
  %3 = load i64, ptr %ingressThreshold_, align 8
  %cmp = icmp uge i64 %2, %3
  br i1 %cmp, label %if.then, label %if.end

if.then:                                          ; preds = %entry
  %ingressSize_3 = getelementptr inbounds %"class.proxygen::HTTPSessionActivityTracker", ptr %this1, i32 0, i32 2
  %4 = load i64, ptr %ingressSize_3, align 8
  %ingressThreshold_4 = getelementptr inbounds %"class.proxygen::HTTPSessionActivityTracker", ptr %this1, i32 0, i32 4
  %5 = load i64, ptr %ingressThreshold_4, align 8
  %rem = urem i64 %4, %5
  %ingressSize_5 = getelementptr inbounds %"class.proxygen::HTTPSessionActivityTracker", ptr %this1, i32 0, i32 2
  store i64 %rem, ptr %ingressSize_5, align 8
  %vtable = load ptr, ptr %this1, align 8
  %vfn = getelementptr inbounds ptr, ptr %vtable, i64 0
  %6 = load ptr, ptr %vfn, align 8
  call void %6(ptr noundef nonnull align 8 dereferenceable(48) %this1)
  store i1 true, ptr %retval, align 1
  br label %return

if.end:                                           ; preds = %entry
  store i1 false, ptr %retval, align 1
  br label %return

return:                                           ; preds = %if.end, %if.then
  %7 = load i1, ptr %retval, align 1
  ret i1 %7
}