; Function Attrs: mustprogress uwtable
define noundef zeroext i1 @_ZN8proxygen26HTTPSessionActivityTracker13onIngressBodyEm(ptr noundef nonnull align 8 dereferenceable(48) %this, i64 noundef %bytes) local_unnamed_addr #4 align 2 {
entry:
  %ingressSize_ = getelementptr inbounds i8, ptr %this, i64 16
  %0 = load i64, ptr %ingressSize_, align 8
  %add = add i64 %0, %bytes
  store i64 %add, ptr %ingressSize_, align 8
  %ingressThreshold_ = getelementptr inbounds i8, ptr %this, i64 32
  %1 = load i64, ptr %ingressThreshold_, align 8
  %cmp.not = icmp uge i64 %add, %1
  br i1 %cmp.not, label %if.then, label %return

if.then:                                          ; preds = %entry
  %rem = urem i64 %add, %1
  store i64 %rem, ptr %ingressSize_, align 8
  %vtable = load ptr, ptr %this, align 8
  %2 = load ptr, ptr %vtable, align 8
  tail call void %2(ptr noundef nonnull align 8 dereferenceable(48) %this)
  br label %return

return:                                           ; preds = %entry, %if.then
  ret i1 %cmp.not
}